; Function Attrs: mustprogress uwtable
define internal void @_ZNK8facebook5velox12_GLOBAL__N_122PrimitiveVectorPrinter12printNonNullEiRKNSt7__cxx1112basic_stringIcSt11char_traitsIcESaIcEEE(ptr noalias sret(%"class.std::__cxx11::basic_string") align 8 %agg.result, ptr nocapture noundef nonnull readonly align 8 dereferenceable(152) %this, i32 noundef %index, ptr noundef nonnull align 8 dereferenceable(32) %indent) unnamed_addr #2 align 2 personality ptr @__gxx_personality_v0 {
entry:
  %out = alloca %"class.std::__cxx11::basic_stringstream", align 8
  %ref.tmp = alloca %"class.std::__cxx11::basic_string", align 8
  call void @_ZNSt7__cxx1118basic_stringstreamIcSt11char_traitsIcESaIcEEC1Ev(ptr noundef nonnull align 8 dereferenceable(128) %out)
  %add.ptr = getelementptr inbounds i8, ptr %out, i64 16
  %call = invoke noundef nonnull align 8 dereferenceable(8) ptr @_ZStlsIcSt11char_traitsIcESaIcEERSt13basic_ostreamIT_T0_ES7_RKNSt7__cxx1112basic_stringIS4_S5_T1_EE(ptr noundef nonnull align 8 dereferenceable(8) %add.ptr, ptr noundef nonnull align 8 dereferenceable(32) %indent)
          to label %invoke.cont unwind label %lpad

invoke.cont:                                      ; preds = %entry
  %baseVector_.i = getelementptr inbounds i8, ptr %this, i64 56
  %0 = load ptr, ptr %baseVector_.i, align 8
  %isIdentityMapping_.i = getelementptr inbounds i8, ptr %this, i64 66
  %1 = load i8, ptr %isIdentityMapping_.i, align 2
  %2 = and i8 %1, 1
  %tobool.not.i = icmp eq i8 %2, 0
  br i1 %tobool.not.i, label %if.end.i, label %_ZNK8facebook5velox13DecodedVector5indexEi.exit

if.end.i:                                         ; preds = %invoke.cont
  %isConstantMapping_.i = getelementptr inbounds i8, ptr %this, i64 67
  %3 = load i8, ptr %isConstantMapping_.i, align 1
  %4 = and i8 %3, 1
  %tobool2.not.i = icmp eq i8 %4, 0
  br i1 %tobool2.not.i, label %if.end4.i, label %if.then3.i

if.then3.i:                                       ; preds = %if.end.i
  %constantIndex_.i = getelementptr inbounds i8, ptr %this, i64 72
  %5 = load i32, ptr %constantIndex_.i, align 8
  br label %_ZNK8facebook5velox13DecodedVector5indexEi.exit

if.end4.i:                                        ; preds = %if.end.i
  %indices_.i = getelementptr inbounds i8, ptr %this, i64 16
  %6 = load ptr, ptr %indices_.i, align 8
  %idxprom.i = sext i32 %index to i64
  %arrayidx.i = getelementptr inbounds i32, ptr %6, i64 %idxprom.i
  %7 = load i32, ptr %arrayidx.i, align 4
  br label %_ZNK8facebook5velox13DecodedVector5indexEi.exit

_ZNK8facebook5velox13DecodedVector5indexEi.exit:  ; preds = %invoke.cont, %if.then3.i, %if.end4.i
  %retval.0.i = phi i32 [ %5, %if.then3.i ], [ %7, %if.end4.i ], [ %index, %invoke.cont ]
  %vtable = load ptr, ptr %0, align 8
  %vfn = getelementptr inbounds i8, ptr %vtable, i64 320
  %8 = load ptr, ptr %vfn, align 8
  invoke void %8(ptr nonnull sret(%"class.std::__cxx11::basic_string") align 8 %ref.tmp, ptr noundef nonnull align 8 dereferenceable(99) %0, i32 noundef %retval.0.i)
          to label %invoke.cont5 unwind label %lpad

invoke.cont5:                                     ; preds = %_ZNK8facebook5velox13DecodedVector5indexEi.exit
  %call8 = invoke noundef nonnull align 8 dereferenceable(8) ptr @_ZStlsIcSt11char_traitsIcESaIcEERSt13basic_ostreamIT_T0_ES7_RKNSt7__cxx1112basic_stringIS4_S5_T1_EE(ptr noundef nonnull align 8 dereferenceable(8) %call, ptr noundef nonnull align 8 dereferenceable(32) %ref.tmp)
          to label %invoke.cont7 unwind label %lpad6

invoke.cont7:                                     ; preds = %invoke.cont5
  %call10 = invoke noundef nonnull align 8 dereferenceable(8) ptr @_ZNSolsEPFRSoS_E(ptr noundef nonnull align 8 dereferenceable(8) %call8, ptr noundef nonnull @_ZSt4endlIcSt11char_traitsIcEERSt13basic_ostreamIT_T0_ES6_)
          to label %invoke.cont9 unwind label %lpad6

invoke.cont9:                                     ; preds = %invoke.cont7
  call void @_ZNSt7__cxx1112basic_stringIcSt11char_traitsIcESaIcEED1Ev(ptr noundef nonnull align 8 dereferenceable(32) %ref.tmp) #20
  invoke void @_ZNKSt7__cxx1118basic_stringstreamIcSt11char_traitsIcESaIcEE3strEv(ptr sret(%"class.std::__cxx11::basic_string") align 8 %agg.result, ptr noundef nonnull align 8 dereferenceable(128) %out)
          to label %invoke.cont11 unwind label %lpad

invoke.cont11:                                    ; preds = %invoke.cont9
  call void @_ZNSt7__cxx1118basic_stringstreamIcSt11char_traitsIcESaIcEED1Ev(ptr noundef nonnull align 8 dereferenceable(128) %out) #20
  ret void

lpad:                                             ; preds = %invoke.cont9, %_ZNK8facebook5velox13DecodedVector5indexEi.exit, %entry
  %9 = landingpad { ptr, i32 }
          cleanup
  br label %ehcleanup

lpad6:                                            ; preds = %invoke.cont7, %invoke.cont5
  %10 = landingpad { ptr, i32 }
          cleanup
  call void @_ZNSt7__cxx1112basic_stringIcSt11char_traitsIcESaIcEED1Ev(ptr noundef nonnull align 8 dereferenceable(32) %ref.tmp) #20
  br label %ehcleanup

ehcleanup:                                        ; preds = %lpad6, %lpad
  %.pn = phi { ptr, i32 } [ %9, %lpad ], [ %10, %lpad6 ]
  call void @_ZNSt7__cxx1118basic_stringstreamIcSt11char_traitsIcESaIcEED1Ev(ptr noundef nonnull align 8 dereferenceable(128) %out) #20
  resume { ptr, i32 } %.pn
}